; Function Attrs: inlinehint mustprogress optsize uwtable
define internal noundef ptr @"_ZZN8nanobind6detail11func_createILb0ELb1EZL26nanobind_init_test_stl_extRNS_7module_EE4$_10P8CopyableJETpTnmJEJNS_5scopeENS_4nameEEEEP7_objectOT1_PFT2_DpT3_ESt16integer_sequenceImJXspT4_EEEDpRKT5_ENUlPvPSA_PhNS_9rv_policyEPNS0_12cleanup_listEE_8__invokeESO_SP_SQ_SR_ST_"(ptr readnone captures(none) %0, ptr readnone captures(none) %1, ptr readnone captures(none) %2, i32 noundef %3, ptr noundef %4) #11 align 2 personality ptr @__gxx_personality_v0 {
  %6 = tail call noalias noundef nonnull dereferenceable(4) ptr @_Znwm(i64 noundef 4) #33
  store i32 5, ptr %6, align 4, !tbaa !142
  %7 = load i32, ptr @_ZL19default_constructed, align 4, !tbaa !128
  %8 = add nsw i32 %7, 1
  store i32 %8, ptr @_ZL19default_constructed, align 4, !tbaa !128
  %9 = icmp eq i32 %3, 0
  %10 = icmp eq i32 %3, 1
  %spec.store.select.i = select i1 %10, i32 5, i32 %3
  %.0.i = select i1 %9, i32 2, i32 %spec.store.select.i
  %11 = tail call noundef ptr @_ZN8nanobind6detail11nb_type_putEPKSt9type_infoPvNS_9rv_policyEPNS0_12cleanup_listEPb(ptr noundef nonnull @_ZTI8Copyable, ptr noundef nonnull %6, i32 noundef %.0.i, ptr noundef %4, ptr noundef null) #27
  ret ptr %11
}